; ModuleID = '57/2260.c'
source_filename = "57/2260.c"
target datalayout = "e-m:e-p270:32:32-p271:32:32-p272:64:64-i64:64-f80:128-n8:16:32:64-S128"
target triple = "x86_64-pc-linux-gnu"

@.str = private unnamed_addr constant [3 x i8] c"%d\00", align 1
@.str.1 = private unnamed_addr constant [3 x i8] c"%s\00", align 1
@.str.2 = private unnamed_addr constant [3 x i8] c"%c\00", align 1
@.str.3 = private unnamed_addr constant [2 x i8] c"\0A\00", align 1

; Function Attrs: noinline nounwind uwtable
define dso_local i32 @main() #0 {
  %1 = alloca i32, align 4
  %2 = alloca i32, align 4
  %3 = alloca i32, align 4
  %4 = alloca [30 x i8], align 16
  %5 = alloca i32, align 4
  %6 = alloca i32, align 4
  %7 = alloca i32, align 4
  %8 = alloca i32, align 4
  store i32 0, i32* %1, align 4
  %9 = call i32 (i8*, ...) @__isoc99_scanf(i8* getelementptr inbounds ([3 x i8], [3 x i8]* @.str, i64 0, i64 0), i32* %3)
  store i32 0, i32* %2, align 4
  br label %10

10:                                               ; preds = %106, %0
  %11 = load i32, i32* %2, align 4
  %12 = load i32, i32* %3, align 4
  %13 = icmp slt i32 %11, %12
  br i1 %13, label %14, label %109

14:                                               ; preds = %10
  %15 = getelementptr inbounds [30 x i8], [30 x i8]* %4, i64 0, i64 0
  %16 = call i32 (i8*, ...) @__isoc99_scanf(i8* getelementptr inbounds ([3 x i8], [3 x i8]* @.str.1, i64 0, i64 0), i8* %15)
  %17 = getelementptr inbounds [30 x i8], [30 x i8]* %4, i64 0, i64 0
  %18 = call i64 @strlen(i8* %17) #3
  %19 = trunc i64 %18 to i32
  store i32 %19, i32* %5, align 4
  %20 = load i32, i32* %5, align 4
  %21 = sub nsw i32 %20, 2
  %22 = sext i32 %21 to i64
  %23 = getelementptr inbounds [30 x i8], [30 x i8]* %4, i64 0, i64 %22
  %24 = load i8, i8* %23, align 1
  %25 = sext i8 %24 to i32
  %26 = icmp eq i32 %25, 101
  br i1 %26, label %27, label %45

27:                                               ; preds = %14
  store i32 0, i32* %6, align 4
  br label %28

28:                                               ; preds = %40, %27
  %29 = load i32, i32* %6, align 4
  %30 = load i32, i32* %5, align 4
  %31 = sub nsw i32 %30, 2
  %32 = icmp slt i32 %29, %31
  br i1 %32, label %33, label %43

33:                                               ; preds = %28
  %34 = load i32, i32* %6, align 4
  %35 = sext i32 %34 to i64
  %36 = getelementptr inbounds [30 x i8], [30 x i8]* %4, i64 0, i64 %35
  %37 = load i8, i8* %36, align 1
  %38 = sext i8 %37 to i32
  %39 = call i32 (i8*, ...) @printf(i8* getelementptr inbounds ([3 x i8], [3 x i8]* @.str.2, i64 0, i64 0), i32 %38)
  br label %40

40:                                               ; preds = %33
  %41 = load i32, i32* %6, align 4
  %42 = add nsw i32 %41, 1
  store i32 %42, i32* %6, align 4
  br label %28

43:                                               ; preds = %28
  %44 = call i32 (i8*, ...) @printf(i8* getelementptr inbounds ([2 x i8], [2 x i8]* @.str.3, i64 0, i64 0))
  br label %45

45:                                               ; preds = %43, %14
  %46 = load i32, i32* %5, align 4
  %47 = sub nsw i32 %46, 2
  %48 = sext i32 %47 to i64
  %49 = getelementptr inbounds [30 x i8], [30 x i8]* %4, i64 0, i64 %48
  %50 = load i8, i8* %49, align 1
  %51 = sext i8 %50 to i32
  %52 = icmp eq i32 %51, 108
  br i1 %52, label %53, label %71

53:                                               ; preds = %45
  store i32 0, i32* %7, align 4
  br label %54

54:                                               ; preds = %66, %53
  %55 = load i32, i32* %7, align 4
  %56 = load i32, i32* %5, align 4
  %57 = sub nsw i32 %56, 2
  %58 = icmp slt i32 %55, %57
  br i1 %58, label %59, label %69

59:                                               ; preds = %54
  %60 = load i32, i32* %7, align 4
  %61 = sext i32 %60 to i64
  %62 = getelementptr inbounds [30 x i8], [30 x i8]* %4, i64 0, i64 %61
  %63 = load i8, i8* %62, align 1
  %64 = sext i8 %63 to i32
  %65 = call i32 (i8*, ...) @printf(i8* getelementptr inbounds ([3 x i8], [3 x i8]* @.str.2, i64 0, i64 0), i32 %64)
  br label %66

66:                                               ; preds = %59
  %67 = load i32, i32* %7, align 4
  %68 = add nsw i32 %67, 1
  store i32 %68, i32* %7, align 4
  br label %54

69:                                               ; preds = %54
  %70 = call i32 (i8*, ...) @printf(i8* getelementptr inbounds ([2 x i8], [2 x i8]* @.str.3, i64 0, i64 0))
  br label %71

71:                                               ; preds = %69, %45
  %72 = load i32, i32* %5, align 4
  %73 = sub nsw i32 %72, 3
  %74 = sext i32 %73 to i64
  %75 = getelementptr inbounds [30 x i8], [30 x i8]* %4, i64 0, i64 %74
  %76 = load i8, i8* %75, align 1
  %77 = sext i8 %76 to i32
  %78 = icmp eq i32 %77, 105
  br i1 %78, label %79, label %105

79:                                               ; preds = %71
  %80 = load i32, i32* %5, align 4
  %81 = sub nsw i32 %80, 2
  %82 = sext i32 %81 to i64
  %83 = getelementptr inbounds [30 x i8], [30 x i8]* %4, i64 0, i64 %82
  %84 = load i8, i8* %83, align 1
  %85 = sext i8 %84 to i32
  %86 = icmp eq i32 %85, 110
  br i1 %86, label %87, label %105

87:                                               ; preds = %79
  store i32 0, i32* %8, align 4
  br label %88

88:                                               ; preds = %100, %87
  %89 = load i32, i32* %8, align 4
  %90 = load i32, i32* %5, align 4
  %91 = sub nsw i32 %90, 3
  %92 = icmp slt i32 %89, %91
  br i1 %92, label %93, label %103

93:                                               ; preds = %88
  %94 = load i32, i32* %8, align 4
  %95 = sext i32 %94 to i64
  %96 = getelementptr inbounds [30 x i8], [30 x i8]* %4, i64 0, i64 %95
  %97 = load i8, i8* %96, align 1
  %98 = sext i8 %97 to i32
  %99 = call i32 (i8*, ...) @printf(i8* getelementptr inbounds ([3 x i8], [3 x i8]* @.str.2, i64 0, i64 0), i32 %98)
  br label %100

100:                                              ; preds = %93
  %101 = load i32, i32* %8, align 4
  %102 = add nsw i32 %101, 1
  store i32 %102, i32* %8, align 4
  br label %88

103:                                              ; preds = %88
  %104 = call i32 (i8*, ...) @printf(i8* getelementptr inbounds ([2 x i8], [2 x i8]* @.str.3, i64 0, i64 0))
  br label %105

105:                                              ; preds = %103, %79, %71
  br label %106

106:                                              ; preds = %105
  %107 = load i32, i32* %2, align 4
  %108 = add nsw i32 %107, 1
  store i32 %108, i32* %2, align 4
  br label %10

109:                                              ; preds = %10
  ret i32 0
}

declare dso_local i32 @__isoc99_scanf(i8*, ...) #1

; Function Attrs: nounwind readonly
declare dso_local i64 @strlen(i8*) #2

declare dso_local i32 @printf(i8*, ...) #1


!llvm.module.flags = !{!0}
!llvm.ident = !{!1}

!0 = !{i32 1, !"wchar_size", i32 4}
!1 = !{!"clang version 10.0.0-4ubuntu1 "}
