; ModuleID = 'source-C-CXX/56/2260.c'
source_filename = "source-C-CXX/56/2260.c"
target datalayout = "e-m:e-p270:32:32-p271:32:32-p272:64:64-i64:64-f80:128-n8:16:32:64-S128"
target triple = "x86_64-pc-linux-gnu"

@.str = private unnamed_addr constant [3 x i8] c"%d\00", align 1
@.str.1 = private unnamed_addr constant [3 x i8] c"%s\00", align 1

; Function Attrs: nofree nounwind sspstrong uwtable
define dso_local i32 @main() local_unnamed_addr #0 {
  %1 = alloca i32, align 4
  %2 = alloca [30 x i8], align 16
  %3 = bitcast i32* %1 to i8*
  call void @llvm.lifetime.start.p0i8(i64 4, i8* nonnull %3) #5
  %4 = call i32 (i8*, ...) @__isoc99_scanf(i8* getelementptr inbounds ([3 x i8], [3 x i8]* @.str, i64 0, i64 0), i32* nonnull %1)
  %5 = getelementptr inbounds [30 x i8], [30 x i8]* %2, i64 0, i64 0
  %6 = load i32, i32* %1, align 4, !tbaa !5
  %7 = icmp sgt i32 %6, 0
  br i1 %7, label %8, label %77

8:                                                ; preds = %0, %73
  %9 = phi i32 [ %74, %73 ], [ 0, %0 ]
  call void @llvm.lifetime.start.p0i8(i64 30, i8* nonnull %5) #5
  %10 = call i32 (i8*, ...) @__isoc99_scanf(i8* getelementptr inbounds ([3 x i8], [3 x i8]* @.str.1, i64 0, i64 0), i8* nonnull %5)
  %11 = call i64 @strlen(i8* noundef nonnull %5) #6
  %12 = trunc i64 %11 to i32
  %13 = add i32 %12, -2
  %14 = sext i32 %13 to i64
  %15 = getelementptr inbounds [30 x i8], [30 x i8]* %2, i64 0, i64 %14
  %16 = load i8, i8* %15, align 1, !tbaa !9
  %17 = icmp eq i8 %16, 101
  br i1 %17, label %18, label %33

18:                                               ; preds = %8
  %19 = icmp sgt i32 %12, 2
  br i1 %19, label %20, label %30

20:                                               ; preds = %18
  %21 = zext i32 %13 to i64
  br label %22

22:                                               ; preds = %20, %22
  %23 = phi i64 [ 0, %20 ], [ %28, %22 ]
  %24 = getelementptr inbounds [30 x i8], [30 x i8]* %2, i64 0, i64 %23
  %25 = load i8, i8* %24, align 1, !tbaa !9
  %26 = sext i8 %25 to i32
  %27 = call i32 @putchar(i32 %26)
  %28 = add nuw nsw i64 %23, 1
  %29 = icmp eq i64 %28, %21
  br i1 %29, label %30, label %22, !llvm.loop !10

30:                                               ; preds = %22, %18
  %31 = call i32 @putchar(i32 10)
  %32 = load i8, i8* %15, align 1, !tbaa !9
  br label %33

33:                                               ; preds = %30, %8
  %34 = phi i8 [ %32, %30 ], [ %16, %8 ]
  %35 = icmp eq i8 %34, 108
  br i1 %35, label %36, label %50

36:                                               ; preds = %33
  %37 = icmp sgt i32 %12, 2
  br i1 %37, label %38, label %48

38:                                               ; preds = %36
  %39 = zext i32 %13 to i64
  br label %40

40:                                               ; preds = %38, %40
  %41 = phi i64 [ 0, %38 ], [ %46, %40 ]
  %42 = getelementptr inbounds [30 x i8], [30 x i8]* %2, i64 0, i64 %41
  %43 = load i8, i8* %42, align 1, !tbaa !9
  %44 = sext i8 %43 to i32
  %45 = call i32 @putchar(i32 %44)
  %46 = add nuw nsw i64 %41, 1
  %47 = icmp eq i64 %46, %39
  br i1 %47, label %48, label %40, !llvm.loop !12

48:                                               ; preds = %40, %36
  %49 = call i32 @putchar(i32 10)
  br label %50

50:                                               ; preds = %48, %33
  %51 = add i32 %12, -3
  %52 = sext i32 %51 to i64
  %53 = getelementptr inbounds [30 x i8], [30 x i8]* %2, i64 0, i64 %52
  %54 = load i8, i8* %53, align 1, !tbaa !9
  %55 = icmp eq i8 %54, 105
  br i1 %55, label %56, label %73

56:                                               ; preds = %50
  %57 = load i8, i8* %15, align 1, !tbaa !9
  %58 = icmp eq i8 %57, 110
  br i1 %58, label %59, label %73

59:                                               ; preds = %56
  %60 = icmp sgt i32 %12, 3
  br i1 %60, label %61, label %71

61:                                               ; preds = %59
  %62 = zext i32 %51 to i64
  br label %63

63:                                               ; preds = %61, %63
  %64 = phi i64 [ 0, %61 ], [ %69, %63 ]
  %65 = getelementptr inbounds [30 x i8], [30 x i8]* %2, i64 0, i64 %64
  %66 = load i8, i8* %65, align 1, !tbaa !9
  %67 = sext i8 %66 to i32
  %68 = call i32 @putchar(i32 %67)
  %69 = add nuw nsw i64 %64, 1
  %70 = icmp eq i64 %69, %62
  br i1 %70, label %71, label %63, !llvm.loop !13

71:                                               ; preds = %63, %59
  %72 = call i32 @putchar(i32 10)
  br label %73

73:                                               ; preds = %71, %56, %50
  call void @llvm.lifetime.end.p0i8(i64 30, i8* nonnull %5) #5
  %74 = add nuw nsw i32 %9, 1
  %75 = load i32, i32* %1, align 4, !tbaa !5
  %76 = icmp slt i32 %74, %75
  br i1 %76, label %8, label %77, !llvm.loop !14

77:                                               ; preds = %73, %0
  call void @llvm.lifetime.end.p0i8(i64 4, i8* nonnull %3) #5
  ret i32 0
}

; Function Attrs: argmemonly mustprogress nofree nosync nounwind willreturn
declare void @llvm.lifetime.start.p0i8(i64 immarg, i8* nocapture) #1

; Function Attrs: nofree nounwind
declare noundef i32 @__isoc99_scanf(i8* nocapture noundef readonly, ...) local_unnamed_addr #2

; Function Attrs: argmemonly mustprogress nofree nounwind readonly willreturn
declare i64 @strlen(i8* nocapture) local_unnamed_addr #3

; Function Attrs: argmemonly mustprogress nofree nosync nounwind willreturn
declare void @llvm.lifetime.end.p0i8(i64 immarg, i8* nocapture) #1

; Function Attrs: nofree nounwind
declare noundef i32 @putchar(i32 noundef) local_unnamed_addr #4


!llvm.module.flags = !{!0, !1, !2, !3}
!llvm.ident = !{!4}

!0 = !{i32 1, !"wchar_size", i32 4}
!1 = !{i32 7, !"PIC Level", i32 2}
!2 = !{i32 7, !"PIE Level", i32 2}
!3 = !{i32 7, !"uwtable", i32 1}
!4 = !{!"clang version 13.0.0"}
!5 = !{!6, !6, i64 0}
!6 = !{!"int", !7, i64 0}
!7 = !{!"omnipotent char", !8, i64 0}
!8 = !{!"Simple C/C++ TBAA"}
!9 = !{!7, !7, i64 0}
!10 = distinct !{!10, !11}
!11 = !{!"llvm.loop.mustprogress"}
!12 = distinct !{!12, !11}
!13 = distinct !{!13, !11}
!14 = distinct !{!14, !11}
